target datalayout = "e-m:e-p270:32:32-p271:32:32-p272:64:64-i64:64-i128:128-f80:128-n8:16:32:64-S128"
target triple = "x86_64-pc-linux-gnu"

%struct.Jsonb = type { i32, %struct.JsonbContainer }
%struct.JsonbContainer = type { i32, [0 x i32] }
%struct.anon = type { i32, [0 x i8] }
%struct.JsonbValue = type { i32, %union.anon }
%union.anon = type { %struct.anon.2 }
%struct.anon.2 = type { i32, ptr, i8 }
%struct.anon.1 = type { i32, ptr }

@.str.1 = private unnamed_addr constant [8 x i8] c"jsonb.c\00", align 1
@.str.7 = private unnamed_addr constant [5 x i8] c"null\00", align 1
@.str.32 = private unnamed_addr constant [5 x i8] c"true\00", align 1
@.str.33 = private unnamed_addr constant [6 x i8] c"false\00", align 1
@.str.34 = private unnamed_addr constant [33 x i8] c"unrecognized jsonb value type %d\00", align 1
@__func__.JsonbUnquote = private unnamed_addr constant [13 x i8] c"JsonbUnquote\00", align 1

; Function Attrs: inlinehint nounwind uwtable
define internal ptr @DatumGetPointer(i64 noundef %0) #2 {
  %2 = alloca i64, align 8
  store i64 %0, ptr %2, align 8
  %3 = load i64, ptr %2, align 8
  %4 = inttoptr i64 %3 to ptr
  ret ptr %4
}

; Function Attrs: nounwind uwtable
define dso_local ptr @JsonbToCString(ptr noundef %0, ptr noundef %1, i32 noundef %2) #0 {
  %4 = alloca ptr, align 8
  %5 = alloca ptr, align 8
  %6 = alloca i32, align 4
  store ptr %0, ptr %4, align 8
  store ptr %1, ptr %5, align 8
  store i32 %2, ptr %6, align 4
  %7 = load ptr, ptr %4, align 8
  %8 = load ptr, ptr %5, align 8
  %9 = load i32, ptr %6, align 4
  %10 = call ptr @JsonbToCStringWorker(ptr noundef %7, ptr noundef %8, i32 noundef %9, i1 noundef zeroext false)
  ret ptr %10
}

; Function Attrs: inlinehint nounwind uwtable
define internal ptr @DatumGetCString(i64 noundef %0) #2 {
  %2 = alloca i64, align 8
  store i64 %0, ptr %2, align 8
  %3 = load i64, ptr %2, align 8
  %4 = call ptr @DatumGetPointer(i64 noundef %3)
  ret ptr %4
}

; Function Attrs: inlinehint nounwind uwtable
define internal i64 @PointerGetDatum(ptr noundef %0) #2 {
  %2 = alloca ptr, align 8
  store ptr %0, ptr %2, align 8
  %3 = load ptr, ptr %2, align 8
  %4 = ptrtoint ptr %3 to i64
  ret i64 %4
}

; Function Attrs: nounwind uwtable
define dso_local zeroext i1 @JsonbExtractScalar(ptr noundef %0, ptr noundef %1) #0 {
  %3 = alloca i1, align 1
  %4 = alloca ptr, align 8
  %5 = alloca ptr, align 8
  %6 = alloca ptr, align 8
  %7 = alloca i32, align 4
  %8 = alloca %struct.JsonbValue, align 8
  %9 = alloca i32, align 4
  store ptr %0, ptr %4, align 8
  store ptr %1, ptr %5, align 8
  call void @llvm.lifetime.start.p0(i64 8, ptr %6) #8
  call void @llvm.lifetime.start.p0(i64 4, ptr %7) #8
  call void @llvm.lifetime.start.p0(i64 32, ptr %8) #8
  %10 = load ptr, ptr %4, align 8
  %11 = getelementptr inbounds nuw %struct.JsonbContainer, ptr %10, i32 0, i32 0
  %12 = load i32, ptr %11, align 4
  %13 = and i32 %12, 1073741824
  %14 = icmp ne i32 %13, 0
  br i1 %14, label %15, label %21

15:                                               ; preds = %2
  %16 = load ptr, ptr %4, align 8
  %17 = getelementptr inbounds nuw %struct.JsonbContainer, ptr %16, i32 0, i32 0
  %18 = load i32, ptr %17, align 4
  %19 = and i32 %18, 268435456
  %20 = icmp ne i32 %19, 0
  br i1 %20, label %30, label %21

21:                                               ; preds = %15, %2
  %22 = load ptr, ptr %4, align 8
  %23 = getelementptr inbounds nuw %struct.JsonbContainer, ptr %22, i32 0, i32 0
  %24 = load i32, ptr %23, align 4
  %25 = and i32 %24, 1073741824
  %26 = icmp ne i32 %25, 0
  %27 = select i1 %26, i32 16, i32 17
  %28 = load ptr, ptr %5, align 8
  %29 = getelementptr inbounds nuw %struct.JsonbValue, ptr %28, i32 0, i32 0
  store i32 %27, ptr %29, align 8
  store i1 false, ptr %3, align 1
  store i32 1, ptr %9, align 4
  br label %38

30:                                               ; preds = %15
  %31 = load ptr, ptr %4, align 8
  %32 = call ptr @JsonbIteratorInit(ptr noundef %31)
  store ptr %32, ptr %6, align 8
  %33 = call i32 @JsonbIteratorNext(ptr noundef %6, ptr noundef %8, i1 noundef zeroext true)
  store i32 %33, ptr %7, align 4
  %34 = load ptr, ptr %5, align 8
  %35 = call i32 @JsonbIteratorNext(ptr noundef %6, ptr noundef %34, i1 noundef zeroext true)
  store i32 %35, ptr %7, align 4
  %36 = call i32 @JsonbIteratorNext(ptr noundef %6, ptr noundef %8, i1 noundef zeroext true)
  store i32 %36, ptr %7, align 4
  %37 = call i32 @JsonbIteratorNext(ptr noundef %6, ptr noundef %8, i1 noundef zeroext true)
  store i32 %37, ptr %7, align 4
  store i1 true, ptr %3, align 1
  store i32 1, ptr %9, align 4
  br label %38

38:                                               ; preds = %30, %21
  call void @llvm.lifetime.end.p0(i64 32, ptr %8) #8
  call void @llvm.lifetime.end.p0(i64 4, ptr %7) #8
  call void @llvm.lifetime.end.p0(i64 8, ptr %6) #8
  %39 = load i1, ptr %3, align 1
  ret i1 %39
}

; Function Attrs: nounwind uwtable
define dso_local ptr @JsonbUnquote(ptr noundef %0) #0 {
  %2 = alloca ptr, align 8
  %3 = alloca ptr, align 8
  %4 = alloca %struct.JsonbValue, align 8
  %5 = alloca i32, align 4
  store ptr %0, ptr %3, align 8
  %6 = load ptr, ptr %3, align 8
  %7 = getelementptr inbounds nuw %struct.anon, ptr %6, i32 0, i32 1
  %8 = getelementptr inbounds [0 x i8], ptr %7, i64 0, i64 0
  %9 = load i32, ptr %8, align 4
  %10 = and i32 %9, 268435456
  %11 = icmp ne i32 %10, 0
  br i1 %11, label %12, label %68

12:                                               ; preds = %1
  call void @llvm.lifetime.start.p0(i64 32, ptr %4) #8
  %13 = load ptr, ptr %3, align 8
  %14 = getelementptr inbounds nuw %struct.Jsonb, ptr %13, i32 0, i32 1
  %15 = call zeroext i1 @JsonbExtractScalar(ptr noundef %14, ptr noundef %4)
  %16 = getelementptr inbounds nuw %struct.JsonbValue, ptr %4, i32 0, i32 0
  %17 = load i32, ptr %16, align 8
  %18 = icmp eq i32 %17, 1
  br i1 %18, label %19, label %28

19:                                               ; preds = %12
  %20 = getelementptr inbounds nuw %struct.JsonbValue, ptr %4, i32 0, i32 1
  %21 = getelementptr inbounds nuw %struct.anon.1, ptr %20, i32 0, i32 1
  %22 = load ptr, ptr %21, align 8
  %23 = getelementptr inbounds nuw %struct.JsonbValue, ptr %4, i32 0, i32 1
  %24 = getelementptr inbounds nuw %struct.anon.1, ptr %23, i32 0, i32 0
  %25 = load i32, ptr %24, align 8
  %26 = sext i32 %25 to i64
  %27 = call ptr @pnstrdup(ptr noundef %22, i64 noundef %26)
  store ptr %27, ptr %2, align 8
  store i32 1, ptr %5, align 4
  br label %67

28:                                               ; preds = %12
  %29 = getelementptr inbounds nuw %struct.JsonbValue, ptr %4, i32 0, i32 0
  %30 = load i32, ptr %29, align 8
  %31 = icmp eq i32 %30, 3
  br i1 %31, label %32, label %38

32:                                               ; preds = %28
  %33 = getelementptr inbounds nuw %struct.JsonbValue, ptr %4, i32 0, i32 1
  %34 = load i8, ptr %33, align 8, !range !4, !noundef !5
  %35 = trunc i8 %34 to i1
  %36 = select i1 %35, ptr @.str.32, ptr @.str.33
  %37 = call ptr @pstrdup(ptr noundef %36)
  store ptr %37, ptr %2, align 8
  store i32 1, ptr %5, align 4
  br label %67

38:                                               ; preds = %28
  %39 = getelementptr inbounds nuw %struct.JsonbValue, ptr %4, i32 0, i32 0
  %40 = load i32, ptr %39, align 8
  %41 = icmp eq i32 %40, 2
  br i1 %41, label %42, label %48

42:                                               ; preds = %38
  %43 = getelementptr inbounds nuw %struct.JsonbValue, ptr %4, i32 0, i32 1
  %44 = load ptr, ptr %43, align 8
  %45 = call i64 @PointerGetDatum(ptr noundef %44)
  %46 = call i64 @DirectFunctionCall1Coll(ptr noundef @numeric_out, i32 noundef 0, i64 noundef %45)
  %47 = call ptr @DatumGetCString(i64 noundef %46)
  store ptr %47, ptr %2, align 8
  store i32 1, ptr %5, align 4
  br label %67

48:                                               ; preds = %38
  %49 = getelementptr inbounds nuw %struct.JsonbValue, ptr %4, i32 0, i32 0
  %50 = load i32, ptr %49, align 8
  %51 = icmp eq i32 %50, 0
  br i1 %51, label %52, label %54

52:                                               ; preds = %48
  %53 = call ptr @pstrdup(ptr noundef @.str.7)
  store ptr %53, ptr %2, align 8
  store i32 1, ptr %5, align 4
  br label %67

54:                                               ; preds = %48
  br label %55

55:                                               ; preds = %54
  br i1 true, label %56, label %58

56:                                               ; preds = %55
  %57 = call zeroext i1 @errstart_cold(i32 noundef 21, ptr noundef null) #10
  br i1 %57, label %60, label %64

58:                                               ; preds = %55
  %59 = call zeroext i1 @errstart(i32 noundef 21, ptr noundef null)
  br i1 %59, label %60, label %64

60:                                               ; preds = %58, %56
  %61 = getelementptr inbounds nuw %struct.JsonbValue, ptr %4, i32 0, i32 0
  %62 = load i32, ptr %61, align 8
  %63 = call i32 (ptr, ...) @errmsg_internal(ptr noundef @.str.34, i32 noundef %62)
  call void @errfinish(ptr noundef @.str.1, i32 noundef 2248, ptr noundef @__func__.JsonbUnquote)
  br label %64

64:                                               ; preds = %60, %58, %56
  unreachable

65:                                               ; No predecessors!
  br label %66

66:                                               ; preds = %65
  store ptr null, ptr %2, align 8
  store i32 1, ptr %5, align 4
  br label %67

67:                                               ; preds = %66, %52, %42, %32, %19
  call void @llvm.lifetime.end.p0(i64 32, ptr %4) #8
  br label %77

68:                                               ; preds = %1
  %69 = load ptr, ptr %3, align 8
  %70 = getelementptr inbounds nuw %struct.Jsonb, ptr %69, i32 0, i32 1
  %71 = load ptr, ptr %3, align 8
  %72 = getelementptr inbounds nuw %struct.anon, ptr %71, i32 0, i32 0
  %73 = load i32, ptr %72, align 4
  %74 = lshr i32 %73, 2
  %75 = and i32 %74, 1073741823
  %76 = call ptr @JsonbToCString(ptr noundef null, ptr noundef %70, i32 noundef %75)
  store ptr %76, ptr %2, align 8
  br label %77

77:                                               ; preds = %68, %67
  %78 = load ptr, ptr %2, align 8
  ret ptr %78
}