; Function Attrs: nounwind uwtable
define dso_local ptr @JsonbUnquote(ptr noundef %0) local_unnamed_addr #0 {
  %2 = alloca ptr, align 8
  %3 = alloca %struct.JsonbValue, align 8
  %4 = alloca %struct.JsonbValue, align 8
  %5 = getelementptr inbounds nuw i8, ptr %0, i64 4
  %6 = load i32, ptr %5, align 4
  %7 = and i32 %6, 268435456
  %.not = icmp eq i32 %7, 0
  br i1 %.not, label %46, label %8

8:                                                ; preds = %1
  call void @llvm.lifetime.start.p0(i64 32, ptr nonnull %4) #11
  call void @llvm.lifetime.start.p0(i64 8, ptr nonnull %2) #11
  call void @llvm.lifetime.start.p0(i64 32, ptr nonnull %3) #11
  %9 = and i32 %6, 1342177280
  %or.cond.not.i = icmp eq i32 %9, 1342177280
  br i1 %or.cond.not.i, label %13, label %10

10:                                               ; preds = %8
  %11 = and i32 %6, 1073741824
  %.not.i = icmp eq i32 %11, 0
  %12 = select i1 %.not.i, i32 17, i32 16
  store i32 %12, ptr %4, align 8
  br label %JsonbExtractScalar.exit

13:                                               ; preds = %8
  %14 = tail call ptr @JsonbIteratorInit(ptr noundef nonnull %5) #11
  store ptr %14, ptr %2, align 8
  %15 = call i32 @JsonbIteratorNext(ptr noundef nonnull %2, ptr noundef nonnull %3, i1 noundef zeroext true) #11
  %16 = call i32 @JsonbIteratorNext(ptr noundef nonnull %2, ptr noundef nonnull %4, i1 noundef zeroext true) #11
  %17 = call i32 @JsonbIteratorNext(ptr noundef nonnull %2, ptr noundef nonnull %3, i1 noundef zeroext true) #11
  %18 = call i32 @JsonbIteratorNext(ptr noundef nonnull %2, ptr noundef nonnull %3, i1 noundef zeroext true) #11
  %.pr = load i32, ptr %4, align 8
  br label %JsonbExtractScalar.exit

JsonbExtractScalar.exit:                          ; preds = %10, %13
  %19 = phi i32 [ %12, %10 ], [ %.pr, %13 ]
  call void @llvm.lifetime.end.p0(i64 32, ptr nonnull %3) #11
  call void @llvm.lifetime.end.p0(i64 8, ptr nonnull %2) #11
  switch i32 %19, label %41 [
    i32 1, label %20
    i32 3, label %27
    i32 2, label %33
    i32 0, label %39
  ]

20:                                               ; preds = %JsonbExtractScalar.exit
  %21 = getelementptr inbounds nuw i8, ptr %4, i64 8
  %22 = getelementptr inbounds nuw i8, ptr %4, i64 16
  %23 = load ptr, ptr %22, align 8
  %24 = load i32, ptr %21, align 8
  %25 = sext i32 %24 to i64
  %26 = call ptr @pnstrdup(ptr noundef %23, i64 noundef %25) #11
  br label %45

27:                                               ; preds = %JsonbExtractScalar.exit
  %28 = getelementptr inbounds nuw i8, ptr %4, i64 8
  %29 = load i8, ptr %28, align 8, !range !7, !noundef !8
  %30 = trunc nuw i8 %29 to i1
  %31 = select i1 %30, ptr @.str.32, ptr @.str.33
  %32 = call ptr @pstrdup(ptr noundef nonnull %31) #11
  br label %45

33:                                               ; preds = %JsonbExtractScalar.exit
  %34 = getelementptr inbounds nuw i8, ptr %4, i64 8
  %35 = load ptr, ptr %34, align 8
  %36 = ptrtoint ptr %35 to i64
  %37 = call i64 @DirectFunctionCall1Coll(ptr noundef nonnull @numeric_out, i32 noundef 0, i64 noundef %36) #11
  %38 = inttoptr i64 %37 to ptr
  br label %45

39:                                               ; preds = %JsonbExtractScalar.exit
  %40 = call ptr @pstrdup(ptr noundef nonnull @.str.7) #11
  br label %45

41:                                               ; preds = %JsonbExtractScalar.exit
  %42 = call zeroext i1 @errstart_cold(i32 noundef 21, ptr noundef null) #12
  call void @llvm.assume(i1 %42)
  %43 = load i32, ptr %4, align 8
  %44 = call i32 (ptr, ...) @errmsg_internal(ptr noundef nonnull @.str.34, i32 noundef %43) #11
  call void @errfinish(ptr noundef nonnull @.str.1, i32 noundef 2248, ptr noundef nonnull @__func__.JsonbUnquote) #11
  unreachable

45:                                               ; preds = %39, %33, %27, %20
  %.0 = phi ptr [ %26, %20 ], [ %32, %27 ], [ %38, %33 ], [ %40, %39 ]
  call void @llvm.lifetime.end.p0(i64 32, ptr nonnull %4) #11
  br label %50

46:                                               ; preds = %1
  %47 = load i32, ptr %0, align 4
  %48 = lshr i32 %47, 2
  %49 = tail call fastcc ptr @JsonbToCStringWorker(ptr noundef null, ptr noundef nonnull %5, i32 noundef %48, i1 noundef zeroext false)
  br label %50

50:                                               ; preds = %46, %45
  %.1 = phi ptr [ %.0, %45 ], [ %49, %46 ]
  ret ptr %.1
}